
Discarded input sections

 .rdata$.refptr.gInfo
                0x0000000000000000       0x10 graphic\string.obj

Memory Configuration

Name             Origin             Length             Attributes
HEAD             0x0000000000000000 0x00000000000f7800 xr
BODY             0x0000000000110000 0x0000000008000000 xr
*default*        0x0000000000000000 0xffffffffffffffff

Linker script and memory map

                0x0000000000400000                __image_base__ = 0x400000
                0x0000000000000000                __dll__ = 0x0
                0x0000000000400000                __ImageBase = 0x400000
                0x0000000000001000                __section_alignment__ = 0x1000
                0x0000000000000200                __file_alignment__ = 0x200
                0x0000000000000004                __major_os_version__ = 0x4
                0x0000000000000000                __minor_os_version__ = 0x0
                0x0000000000000000                __major_image_version__ = 0x0
                0x0000000000000000                __minor_image_version__ = 0x0
                0x0000000000000005                __major_subsystem_version__ = 0x5
                0x0000000000000002                __minor_subsystem_version__ = 0x2
                0x0000000000000003                __subsystem__ = 0x3
                0x0000000000200000                __size_of_stack_reserve__ = 0x200000
                0x0000000000001000                __size_of_stack_commit__ = 0x1000
                0x0000000000100000                __size_of_heap_reserve__ = 0x100000
                0x0000000000001000                __size_of_heap_commit__ = 0x1000
                0x0000000000000000                __loader_flags__ = 0x0
                0x0000000000000000                __dll_characteristics__ = 0x0

.xdata          0x0000000000000000      0x200
 .xdata         0x0000000000000000       0x18 core\kernel.obj
 .xdata         0x0000000000000018        0x4 graphic\init.obj
 .xdata         0x000000000000001c       0x18 graphic\simple.obj
 .xdata         0x0000000000000034       0x18 graphic\string.obj
 .xdata         0x000000000000004c       0x30 memory\gdtidt.obj
 .xdata         0x000000000000007c       0x18 memory\interrupt.obj
 .xdata         0x0000000000000094       0x24 memory\device.obj
 .xdata         0x00000000000000b8        0xc util\stdio.obj

.pdata          0x0000000000001000      0x200
 .pdata         0x0000000000001000       0x18 core\kernel.obj
 .pdata         0x0000000000001018        0xc graphic\init.obj
 .pdata         0x0000000000001024       0x18 graphic\simple.obj
 .pdata         0x000000000000103c       0x18 graphic\string.obj
 .pdata         0x0000000000001054       0x30 memory\gdtidt.obj
 .pdata         0x0000000000001084       0x18 memory\interrupt.obj
 .pdata         0x000000000000109c       0x24 memory\device.obj
 .pdata         0x00000000000010c0        0xc util\stdio.obj

.body           0x0000000000110000     0x1600
 *(.text.entry)
 .text.entry    0x0000000000110000        0x8 core\entry.obj
                0x0000000000110000                _start
 *(.text*)
 *fill*         0x0000000000110008        0x8 
 .text          0x0000000000110010        0x0 core\entry.obj
 .text          0x0000000000110010      0x120 core\kernel.obj
                0x0000000000110010                kernel_init
                0x0000000000110095                kernel_main
 .text          0x0000000000110130       0x10 graphic\init.obj
                0x0000000000110130                initGraphic
 .text          0x0000000000110140      0x150 graphic\simple.obj
                0x0000000000110140                drawRectangle
                0x00000000001101c8                drawCircle
 .text          0x0000000000110290      0x310 graphic\string.obj
                0x0000000000110290                drawCharacter
                0x000000000011053b                drawString
 .text          0x00000000001105a0       0x61 memory\asm_gdtidt.obj
                0x00000000001105a0                loadGdt
                0x00000000001105dc                main_label
                0x00000000001105e2                loadIdt
 *fill*         0x0000000000110601        0xf 
 .text          0x0000000000110610      0x250 memory\gdtidt.obj
                0x0000000000110610                initGdt
                0x000000000011066b                initIdt
                0x0000000000110708                initPic
                0x00000000001107f7                makeGateDescriptor
 .text          0x0000000000110860       0x70 memory\interrupt.obj
                0x0000000000110860                emptyHandler
                0x0000000000110887                keyboardHandler
 .text          0x00000000001108d0       0x2b memory\asm_interrupt.obj
                0x00000000001108d0                asmEmptyHandler
                0x00000000001108e3                asmKeyboardHandler
 *fill*         0x00000000001108fb        0x5 
 .text          0x0000000000110900       0xc0 memory\device.obj
                0x0000000000110900                initTimer
                0x000000000011093c                initKeyBoard
                0x000000000011098f                waitKeyboardSendReady
 .text          0x00000000001109c0       0x1b util\asmfunc.obj
                0x00000000001109c0                io_cli
                0x00000000001109c2                io_sti
                0x00000000001109c4                io_in8
                0x00000000001109ca                io_in32
                0x00000000001109cf                io_out8
                0x00000000001109d5                io_out32
 *fill*         0x00000000001109db        0x5 
 .text          0x00000000001109e0      0x180 util\stdio.obj
                0x00000000001109e0                sprintf
 *(.rodata*)
 *(.data*)
 .data          0x0000000000110b60       0x20 core\kernel.obj
                0x0000000000110b60                gInfo
                0x0000000000110b68                GDT
                0x0000000000110b70                IDT
 .data          0x0000000000110b80        0x0 graphic\init.obj
 .data          0x0000000000110b80        0x0 graphic\simple.obj
 .data          0x0000000000110b80      0x600 graphic\string.obj
                0x0000000000110b80                _fonts
 .data          0x0000000000111180        0x0 memory\gdtidt.obj
 .data          0x0000000000111180        0x0 memory\interrupt.obj
 .data          0x0000000000111180        0x0 memory\device.obj
 .data          0x0000000000111180        0x0 util\stdio.obj
 *(.rdata*)
 .rdata         0x0000000000111180       0x30 core\kernel.obj
 .rdata$zzz     0x00000000001111b0       0x40 core\kernel.obj
 .rdata$zzz     0x00000000001111f0       0x40 graphic\init.obj
 .rdata$zzz     0x0000000000111230       0x40 graphic\simple.obj
 .rdata$.refptr.gInfo
                0x0000000000111270       0x10 graphic\simple.obj
                0x0000000000111270                .refptr.gInfo
 .rdata$zzz     0x0000000000111280       0x40 graphic\string.obj
 .rdata         0x00000000001112c0       0x20 memory\gdtidt.obj
 .rdata$zzz     0x00000000001112e0       0x40 memory\gdtidt.obj
 .rdata$.refptr.asmKeyboardHandler
                0x0000000000111320       0x10 memory\gdtidt.obj
                0x0000000000111320                .refptr.asmKeyboardHandler
 .rdata$.refptr.IDT
                0x0000000000111330       0x10 memory\gdtidt.obj
                0x0000000000111330                .refptr.IDT
 .rdata$.refptr.asmEmptyHandler
                0x0000000000111340       0x10 memory\gdtidt.obj
                0x0000000000111340                .refptr.asmEmptyHandler
 .rdata$.refptr.GDT
                0x0000000000111350       0x10 memory\gdtidt.obj
                0x0000000000111350                .refptr.GDT
 .rdata         0x0000000000111360       0x20 memory\interrupt.obj
 .rdata$zzz     0x0000000000111380       0x40 memory\interrupt.obj
 .rdata         0x00000000001113c0       0x20 memory\device.obj
 .rdata$zzz     0x00000000001113e0       0x40 memory\device.obj
 .rdata$zzz     0x0000000000111420       0x40 util\stdio.obj
                0x0000000000111460                _bss_start = .
 *(.bss)
 .bss           0x0000000000111460       0xa0 core\kernel.obj
                0x0000000000111460                mflag
                0x0000000000111480                mes
 .bss           0x0000000000111500        0x0 graphic\init.obj
 .bss           0x0000000000111500        0x0 graphic\simple.obj
 .bss           0x0000000000111500        0x0 graphic\string.obj
 .bss           0x0000000000111500       0x10 memory\gdtidt.obj
                0x0000000000111500                idtr
 .bss           0x0000000000111510        0x0 memory\interrupt.obj
 .bss           0x0000000000111510        0x0 memory\device.obj
 .bss           0x0000000000111510        0x0 util\stdio.obj
                0x0000000000111510                _bss_end = .
 *(.text.entry)
 *(.text*)
 *(.rodata*)
 *(.data*)
 *(.rdata*)
                0x0000000000111510                _bss_start = .
 *(.bss)
                0x0000000000111510                _bss_end = .

/DISCARD/
 *(.eh_frame)
 *(.eh_frame)
LOAD core\entry.obj
LOAD core\kernel.obj
LOAD graphic\init.obj
LOAD graphic\simple.obj
LOAD graphic\string.obj
LOAD memory\asm_gdtidt.obj
LOAD memory\gdtidt.obj
LOAD memory\interrupt.obj
LOAD memory\asm_interrupt.obj
LOAD memory\device.obj
LOAD util\asmfunc.obj
LOAD util\stdio.obj
LOAD scripts\kernel.ld
OUTPUT(kernel.exe pei-x86-64)
